; Function Attrs: mustprogress nofree norecurse nosync nounwind willreturn memory(argmem: readwrite) uwtable
define internal void @list_startup_fn(ptr noundef %0, ptr noundef writeonly captures(none) initializes((0, 16)) %1) #3 {
  %3 = getelementptr inbounds nuw i8, ptr %1, i64 8
  store ptr %0, ptr %3, align 8
  %.not.i = icmp eq ptr %0, null
  br i1 %.not.i, label %list_head.exit, label %4

4:                                                ; preds = %2
  %5 = getelementptr inbounds nuw i8, ptr %0, i64 16
  %6 = load ptr, ptr %5, align 8
  br label %list_head.exit

list_head.exit:                                   ; preds = %2, %4
  %7 = phi ptr [ %6, %4 ], [ null, %2 ]
  store ptr %7, ptr %1, align 8
  ret void
}